target datalayout = "e-m:e-p270:32:32-p271:32:32-p272:64:64-i64:64-i128:128-f80:128-n8:16:32:64-S128"
target triple = "x86_64-pc-linux-gnu"

%struct.slurm_conf_t = type { i64, ptr, i16, ptr, ptr, ptr, ptr, ptr, i16, ptr, ptr, ptr, ptr, ptr, ptr, ptr, i16, ptr, ptr, ptr, ptr, i16, ptr, ptr, ptr, i64, ptr, ptr, ptr, ptr, i16, ptr, ptr, i16, i32, ptr, i32, ptr, i32, i32, ptr, ptr, i64, i64, ptr, i16, i16, ptr, i32, i32, ptr, i32, ptr, i32, i16, i16, i16, ptr, i16, i16, ptr, ptr, i32, i16, i16, ptr, i32, i16, ptr, ptr, ptr, ptr, i16, ptr, ptr, ptr, ptr, i32, ptr, ptr, ptr, ptr, i16, i16, ptr, i32, i32, i32, i16, i16, ptr, ptr, i16, ptr, ptr, i32, i32, i32, i32, i32, i64, i32, i32, i16, ptr, ptr, i32, ptr, ptr, ptr, i16, i32, ptr, ptr, i16, ptr, ptr, i32, i16, ptr, ptr, ptr, ptr, i32, i32, i16, i16, i32, ptr, i16, ptr, i32, i32, i32, i32, i32, i32, ptr, i16, ptr, ptr, i32, i16, ptr, i32, i16, i16, ptr, ptr, ptr, i16, ptr, ptr, ptr, ptr, i16, i16, ptr, i16, ptr, i16, ptr, i16, ptr, i16, ptr, ptr, ptr, ptr, i16, ptr, ptr, ptr, i32, ptr, i32, ptr, ptr, i16, ptr, ptr, i32, i16, ptr, ptr, i16, i16, ptr, i16, ptr, ptr, ptr, i32, ptr, i16, i16, ptr, ptr, ptr, ptr, ptr, ptr, ptr, ptr, i16, i32, i16, ptr, ptr, ptr, ptr, i32, ptr, ptr, ptr, i16, ptr, ptr, ptr, i16, ptr, i16, ptr, i16, i16, ptr }
%union.pthread_mutex_t = type { %struct.__pthread_mutex_s }
%struct.__pthread_mutex_s = type { i32, i32, i32, i32, i32, i16, i16, %struct.__pthread_internal_list }
%struct.__pthread_internal_list = type { ptr, ptr }
%struct.part_record = type { i32, ptr, ptr, ptr, ptr, ptr, ptr, i32, ptr, ptr, ptr, ptr, ptr, i32, i64, i32, ptr, ptr, ptr, ptr, ptr, i32, i32, ptr, i32, i32, i64, i32, i32, i16, i32, i32, i32, i32, ptr, ptr, ptr, ptr, ptr, double, i16, i16, i16, i16, ptr, ptr, i16, i16, i32, i16, i32, i32, i32, i32, i16, ptr, ptr, ptr }
%struct.job_record = type { i32, ptr, ptr, ptr, ptr, i16, i32, i32, i32, ptr, i32, ptr, ptr, i16, ptr, double, i64, ptr, ptr, ptr, ptr, ptr, ptr, i32, ptr, i32, i64, i64, i32, i32, ptr, i16, i64, i64, i8, i32, ptr, ptr, ptr, ptr, ptr, ptr, ptr, ptr, i32, ptr, ptr, i32, ptr, i32, ptr, i32, ptr, i32, ptr, ptr, ptr, ptr, ptr, ptr, i32, i16, i64, ptr, ptr, ptr, ptr, %struct.acct_policy_limit_set_t, i16, ptr, ptr, ptr, ptr, ptr, i32, ptr, ptr, ptr, ptr, ptr, i32, i32, ptr, ptr, ptr, i16, ptr, ptr, i8, ptr, ptr, i64, i64, i8, i32, i32, i8, i32, ptr, i32, i64, i32, ptr, ptr, ptr, i8, i16, i64, i32, ptr, ptr, ptr, ptr, ptr, i16, i32, ptr, ptr, ptr, ptr, i32, ptr, i32, i16, i64, ptr, i32, i32, ptr, i64, ptr, ptr, i64, i32, i32, i64, i32, i32, ptr, ptr, ptr, ptr, ptr, ptr, ptr, ptr, ptr, ptr, ptr, ptr, i32, ptr, i16, i16, i16, i16, ptr, i32, i32, i8, i64 }
%struct.acct_policy_limit_set_t = type { i16, i16, ptr }

@slurm_conf = external global %struct.slurm_conf_t, align 8
@data_mutex = internal global %union.pthread_mutex_t zeroinitializer, align 8
@.str.1 = private unnamed_addr constant [29 x i8] c"%s: pthread_mutex_lock(): %m\00", align 1
@.str.2 = private unnamed_addr constant [31 x i8] c"%s: pthread_mutex_unlock(): %m\00", align 1
@gs_part_list = internal global ptr null, align 8
@.str.9 = private unnamed_addr constant [32 x i8] c"GANG: gang: entering %s for %pJ\00", align 1
@__func__.gs_job_fini = private unnamed_addr constant [12 x i8] c"gs_job_fini\00", align 1
@.str.13 = private unnamed_addr constant [32 x i8] c"GANG: gang: leaving gs_job_fini\00", align 1

; Function Attrs: nounwind uwtable
define internal void @_update_all_active_rows() #0 {
  %1 = alloca ptr, align 8
  %2 = alloca ptr, align 8
  call void @llvm.lifetime.start.p0(i64 8, ptr %1) #8
  call void @llvm.lifetime.start.p0(i64 8, ptr %2) #8
  %3 = load ptr, ptr @gs_part_list, align 8
  call void @list_sort(ptr noundef %3, ptr noundef @_sort_partitions)
  %4 = load ptr, ptr @gs_part_list, align 8
  %5 = call ptr @list_iterator_create(ptr noundef %4)
  store ptr %5, ptr %1, align 8
  br label %6

6:                                                ; preds = %10, %0
  %7 = load ptr, ptr %1, align 8
  %8 = call ptr @list_next(ptr noundef %7)
  store ptr %8, ptr %2, align 8
  %9 = icmp ne ptr %8, null
  br i1 %9, label %10, label %12

10:                                               ; preds = %6
  %11 = load ptr, ptr %2, align 8
  call void @_update_active_row(ptr noundef %11, i32 noundef 1)
  br label %6, !llvm.loop !14

12:                                               ; preds = %6
  %13 = load ptr, ptr %1, align 8
  call void @list_iterator_destroy(ptr noundef %13)
  call void @llvm.lifetime.end.p0(i64 8, ptr %2) #8
  call void @llvm.lifetime.end.p0(i64 8, ptr %1) #8
  ret void
}

; Function Attrs: nounwind uwtable
define dso_local void @gs_job_fini(ptr noundef %0) #0 {
  %2 = alloca ptr, align 8
  %3 = alloca ptr, align 8
  %4 = alloca ptr, align 8
  %5 = alloca i32, align 4
  %6 = alloca i32, align 4
  %7 = alloca i32, align 4
  %8 = alloca i32, align 4
  store ptr %0, ptr %2, align 8
  call void @llvm.lifetime.start.p0(i64 8, ptr %3) #8
  call void @llvm.lifetime.start.p0(i64 8, ptr %4) #8
  %9 = load i16, ptr getelementptr inbounds nuw (%struct.slurm_conf_t, ptr @slurm_conf, i32 0, i32 118), align 4
  %10 = zext i16 %9 to i32
  %11 = and i32 %10, 32768
  %12 = icmp ne i32 %11, 0
  br i1 %12, label %14, label %13

13:                                               ; preds = %1
  store i32 1, ptr %5, align 4
  br label %130

14:                                               ; preds = %1
  %15 = load ptr, ptr %2, align 8
  %16 = getelementptr inbounds nuw %struct.job_record, ptr %15, i32 0, i32 49
  %17 = load i32, ptr %16, align 8
  %18 = icmp ne i32 %17, 0
  br i1 %18, label %19, label %20

19:                                               ; preds = %14
  store i32 1, ptr %5, align 4
  br label %130

20:                                               ; preds = %14
  br label %21

21:                                               ; preds = %20
  %22 = load i64, ptr getelementptr inbounds nuw (%struct.slurm_conf_t, ptr @slurm_conf, i32 0, i32 42), align 8
  %23 = and i64 %22, 8192
  %24 = icmp ne i64 %23, 0
  br i1 %24, label %25, label %34

25:                                               ; preds = %21
  br label %26

26:                                               ; preds = %25
  %27 = call i32 @get_log_level()
  %28 = icmp sge i32 %27, 4
  br i1 %28, label %29, label %31

29:                                               ; preds = %26
  %30 = load ptr, ptr %2, align 8
  call void (i32, ptr, ...) @log_var(i32 noundef 4, ptr noundef @.str.9, ptr noundef @__func__.gs_job_fini, ptr noundef %30)
  br label %31

31:                                               ; preds = %29, %26
  br label %32

32:                                               ; preds = %31
  br label %33

33:                                               ; preds = %32
  br label %34

34:                                               ; preds = %33, %21
  br label %35

35:                                               ; preds = %34
  br label %36

36:                                               ; preds = %35
  %37 = load ptr, ptr %2, align 8
  %38 = getelementptr inbounds nuw %struct.job_record, ptr %37, i32 0, i32 89
  %39 = load ptr, ptr %38, align 8
  %40 = icmp ne ptr %39, null
  br i1 %40, label %41, label %54

41:                                               ; preds = %36
  %42 = load ptr, ptr %2, align 8
  %43 = getelementptr inbounds nuw %struct.job_record, ptr %42, i32 0, i32 89
  %44 = load ptr, ptr %43, align 8
  %45 = getelementptr inbounds nuw %struct.part_record, ptr %44, i32 0, i32 34
  %46 = load ptr, ptr %45, align 8
  %47 = icmp ne ptr %46, null
  br i1 %47, label %48, label %54

48:                                               ; preds = %41
  %49 = load ptr, ptr %2, align 8
  %50 = getelementptr inbounds nuw %struct.job_record, ptr %49, i32 0, i32 89
  %51 = load ptr, ptr %50, align 8
  %52 = getelementptr inbounds nuw %struct.part_record, ptr %51, i32 0, i32 34
  %53 = load ptr, ptr %52, align 8
  store ptr %53, ptr %4, align 8
  br label %58

54:                                               ; preds = %41, %36
  %55 = load ptr, ptr %2, align 8
  %56 = getelementptr inbounds nuw %struct.job_record, ptr %55, i32 0, i32 86
  %57 = load ptr, ptr %56, align 8
  store ptr %57, ptr %4, align 8
  br label %58

58:                                               ; preds = %54, %48
  br label %59

59:                                               ; preds = %58
  call void @llvm.lifetime.start.p0(i64 4, ptr %6) #8
  %60 = call i32 @pthread_mutex_lock(ptr noundef @data_mutex) #8
  store i32 %60, ptr %6, align 4
  %61 = load i32, ptr %6, align 4
  %62 = icmp ne i32 %61, 0
  br i1 %62, label %63, label %66

63:                                               ; preds = %59
  %64 = load i32, ptr %6, align 4
  %65 = call ptr @__errno_location() #9
  store i32 %64, ptr %65, align 4
  call void (ptr, ...) @fatal_abort(ptr noundef @.str.1, ptr noundef @__func__.gs_job_fini) #10
  unreachable

66:                                               ; preds = %59
  call void @llvm.lifetime.end.p0(i64 4, ptr %6) #8
  br label %67

67:                                               ; preds = %66
  br label %68

68:                                               ; preds = %67
  %69 = load ptr, ptr @gs_part_list, align 8
  %70 = load ptr, ptr %4, align 8
  %71 = call ptr @list_find_first(ptr noundef %69, ptr noundef @_find_gs_part, ptr noundef %70)
  store ptr %71, ptr %3, align 8
  %72 = load ptr, ptr %3, align 8
  %73 = icmp ne ptr %72, null
  br i1 %73, label %100, label %74

74:                                               ; preds = %68
  br label %75

75:                                               ; preds = %74
  call void @llvm.lifetime.start.p0(i64 4, ptr %7) #8
  %76 = call i32 @pthread_mutex_unlock(ptr noundef @data_mutex) #8
  store i32 %76, ptr %7, align 4
  %77 = load i32, ptr %7, align 4
  %78 = icmp ne i32 %77, 0
  br i1 %78, label %79, label %82

79:                                               ; preds = %75
  %80 = load i32, ptr %7, align 4
  %81 = call ptr @__errno_location() #9
  store i32 %80, ptr %81, align 4
  call void (ptr, ...) @fatal_abort(ptr noundef @.str.2, ptr noundef @__func__.gs_job_fini) #10
  unreachable

82:                                               ; preds = %75
  call void @llvm.lifetime.end.p0(i64 4, ptr %7) #8
  br label %83

83:                                               ; preds = %82
  br label %84

84:                                               ; preds = %83
  br label %85

85:                                               ; preds = %84
  %86 = load i64, ptr getelementptr inbounds nuw (%struct.slurm_conf_t, ptr @slurm_conf, i32 0, i32 42), align 8
  %87 = and i64 %86, 8192
  %88 = icmp ne i64 %87, 0
  br i1 %88, label %89, label %97

89:                                               ; preds = %85
  br label %90

90:                                               ; preds = %89
  %91 = call i32 @get_log_level()
  %92 = icmp sge i32 %91, 4
  br i1 %92, label %93, label %94

93:                                               ; preds = %90
  call void (i32, ptr, ...) @log_var(i32 noundef 4, ptr noundef @.str.13)
  br label %94

94:                                               ; preds = %93, %90
  br label %95

95:                                               ; preds = %94
  br label %96

96:                                               ; preds = %95
  br label %97

97:                                               ; preds = %96, %85
  br label %98

98:                                               ; preds = %97
  br label %99

99:                                               ; preds = %98
  store i32 1, ptr %5, align 4
  br label %130

100:                                              ; preds = %68
  %101 = load ptr, ptr %2, align 8
  %102 = getelementptr inbounds nuw %struct.job_record, ptr %101, i32 0, i32 53
  %103 = load i32, ptr %102, align 8
  %104 = load ptr, ptr %3, align 8
  call void @_remove_job_from_part(i32 noundef %103, ptr noundef %104, i1 noundef zeroext true)
  call void @_update_all_active_rows()
  br label %105

105:                                              ; preds = %100
  call void @llvm.lifetime.start.p0(i64 4, ptr %8) #8
  %106 = call i32 @pthread_mutex_unlock(ptr noundef @data_mutex) #8
  store i32 %106, ptr %8, align 4
  %107 = load i32, ptr %8, align 4
  %108 = icmp ne i32 %107, 0
  br i1 %108, label %109, label %112

109:                                              ; preds = %105
  %110 = load i32, ptr %8, align 4
  %111 = call ptr @__errno_location() #9
  store i32 %110, ptr %111, align 4
  call void (ptr, ...) @fatal_abort(ptr noundef @.str.2, ptr noundef @__func__.gs_job_fini) #10
  unreachable

112:                                              ; preds = %105
  call void @llvm.lifetime.end.p0(i64 4, ptr %8) #8
  br label %113

113:                                              ; preds = %112
  br label %114

114:                                              ; preds = %113
  br label %115

115:                                              ; preds = %114
  %116 = load i64, ptr getelementptr inbounds nuw (%struct.slurm_conf_t, ptr @slurm_conf, i32 0, i32 42), align 8
  %117 = and i64 %116, 8192
  %118 = icmp ne i64 %117, 0
  br i1 %118, label %119, label %127

119:                                              ; preds = %115
  br label %120

120:                                              ; preds = %119
  %121 = call i32 @get_log_level()
  %122 = icmp sge i32 %121, 4
  br i1 %122, label %123, label %124

123:                                              ; preds = %120
  call void (i32, ptr, ...) @log_var(i32 noundef 4, ptr noundef @.str.13)
  br label %124

124:                                              ; preds = %123, %120
  br label %125

125:                                              ; preds = %124
  br label %126

126:                                              ; preds = %125
  br label %127

127:                                              ; preds = %126, %115
  br label %128

128:                                              ; preds = %127
  br label %129

129:                                              ; preds = %128
  store i32 0, ptr %5, align 4
  br label %130

130:                                              ; preds = %129, %99, %19, %13
  call void @llvm.lifetime.end.p0(i64 8, ptr %4) #8
  call void @llvm.lifetime.end.p0(i64 8, ptr %3) #8
  %131 = load i32, ptr %5, align 4
  switch i32 %131, label %133 [
    i32 0, label %132
    i32 1, label %132
  ]

132:                                              ; preds = %130, %130
  ret void

133:                                              ; preds = %130
  unreachable
}