; Function Attrs: nounwind uwtable
define dso_local void @gs_job_fini(ptr noundef %0) local_unnamed_addr #0 {
  %2 = load i16, ptr getelementptr inbounds nuw (i8, ptr @slurm_conf, i64 796), align 4
  %.not = icmp sgt i16 %2, -1
  br i1 %.not, label %57, label %3

3:                                                ; preds = %1
  %4 = getelementptr inbounds nuw i8, ptr %0, i64 360
  %5 = load i32, ptr %4, align 8
  %.not21 = icmp eq i32 %5, 0
  br i1 %.not21, label %6, label %57

6:                                                ; preds = %3
  %7 = load i64, ptr getelementptr inbounds nuw (i8, ptr @slurm_conf, i64 320), align 8
  %8 = and i64 %7, 8192
  %.not22 = icmp eq i64 %8, 0
  br i1 %.not22, label %13, label %9

9:                                                ; preds = %6
  %10 = tail call i32 @get_log_level() #8
  %11 = icmp sgt i32 %10, 3
  br i1 %11, label %12, label %13

12:                                               ; preds = %9
  tail call void (i32, ptr, ...) @log_var(i32 noundef 4, ptr noundef nonnull @.str.9, ptr noundef nonnull @__func__.gs_job_fini, ptr noundef nonnull %0) #8
  br label %13

13:                                               ; preds = %9, %12, %6
  %14 = getelementptr inbounds nuw i8, ptr %0, i64 672
  %15 = load ptr, ptr %14, align 8
  %.not23 = icmp eq ptr %15, null
  br i1 %.not23, label %19, label %16

16:                                               ; preds = %13
  %17 = getelementptr inbounds nuw i8, ptr %15, i64 232
  %18 = load ptr, ptr %17, align 8
  %.not24 = icmp eq ptr %18, null
  br i1 %.not24, label %19, label %22

19:                                               ; preds = %16, %13
  %20 = getelementptr inbounds nuw i8, ptr %0, i64 648
  %21 = load ptr, ptr %20, align 8
  br label %22

22:                                               ; preds = %16, %19
  %.0 = phi ptr [ %21, %19 ], [ %18, %16 ]
  %23 = tail call i32 @pthread_mutex_lock(ptr noundef nonnull @data_mutex) #8
  %.not25 = icmp eq i32 %23, 0
  br i1 %.not25, label %26, label %24

24:                                               ; preds = %22
  %25 = tail call ptr @__errno_location() #9
  store i32 %23, ptr %25, align 4
  tail call void (ptr, ...) @fatal_abort(ptr noundef nonnull @.str.1, ptr noundef nonnull @__func__.gs_job_fini) #10
  unreachable

26:                                               ; preds = %22
  %27 = load ptr, ptr @gs_part_list, align 8
  %28 = tail call ptr @list_find_first(ptr noundef %27, ptr noundef nonnull @_find_gs_part, ptr noundef %.0) #8
  %.not26 = icmp eq ptr %28, null
  br i1 %.not26, label %29, label %39

29:                                               ; preds = %26
  %30 = tail call i32 @pthread_mutex_unlock(ptr noundef nonnull @data_mutex) #8
  %.not27 = icmp eq i32 %30, 0
  br i1 %.not27, label %33, label %31

31:                                               ; preds = %29
  %32 = tail call ptr @__errno_location() #9
  store i32 %30, ptr %32, align 4
  tail call void (ptr, ...) @fatal_abort(ptr noundef nonnull @.str.2, ptr noundef nonnull @__func__.gs_job_fini) #10
  unreachable

33:                                               ; preds = %29
  %34 = load i64, ptr getelementptr inbounds nuw (i8, ptr @slurm_conf, i64 320), align 8
  %35 = and i64 %34, 8192
  %.not28 = icmp eq i64 %35, 0
  br i1 %.not28, label %57, label %36

36:                                               ; preds = %33
  %37 = tail call i32 @get_log_level() #8
  %38 = icmp sgt i32 %37, 3
  br i1 %38, label %.sink.split, label %57

39:                                               ; preds = %26
  %40 = getelementptr inbounds nuw i8, ptr %0, i64 392
  %41 = load i32, ptr %40, align 8
  tail call fastcc void @_remove_job_from_part(i32 noundef %41, ptr noundef %28, i1 noundef zeroext true)
  %42 = load ptr, ptr @gs_part_list, align 8
  tail call void @list_sort(ptr noundef %42, ptr noundef nonnull @_sort_partitions) #8
  %43 = load ptr, ptr @gs_part_list, align 8
  %44 = tail call ptr @list_iterator_create(ptr noundef %43) #8
  %45 = tail call ptr @list_next(ptr noundef %44) #8
  %.not3.i = icmp eq ptr %45, null
  br i1 %.not3.i, label %_update_all_active_rows.exit, label %.lr.ph.i

.lr.ph.i:                                         ; preds = %39, %.lr.ph.i
  %46 = phi ptr [ %47, %.lr.ph.i ], [ %45, %39 ]
  tail call fastcc void @_update_active_row(ptr noundef %46, i32 noundef 1)
  %47 = tail call ptr @list_next(ptr noundef %44) #8
  %.not.i = icmp eq ptr %47, null
  br i1 %.not.i, label %_update_all_active_rows.exit, label %.lr.ph.i, !llvm.loop !13

_update_all_active_rows.exit:                     ; preds = %.lr.ph.i, %39
  tail call void @list_iterator_destroy(ptr noundef %44) #8
  %48 = tail call i32 @pthread_mutex_unlock(ptr noundef nonnull @data_mutex) #8
  %.not29 = icmp eq i32 %48, 0
  br i1 %.not29, label %51, label %49

49:                                               ; preds = %_update_all_active_rows.exit
  %50 = tail call ptr @__errno_location() #9
  store i32 %48, ptr %50, align 4
  tail call void (ptr, ...) @fatal_abort(ptr noundef nonnull @.str.2, ptr noundef nonnull @__func__.gs_job_fini) #10
  unreachable

51:                                               ; preds = %_update_all_active_rows.exit
  %52 = load i64, ptr getelementptr inbounds nuw (i8, ptr @slurm_conf, i64 320), align 8
  %53 = and i64 %52, 8192
  %.not30 = icmp eq i64 %53, 0
  br i1 %.not30, label %57, label %54

54:                                               ; preds = %51
  %55 = tail call i32 @get_log_level() #8
  %56 = icmp sgt i32 %55, 3
  br i1 %56, label %.sink.split, label %57

.sink.split:                                      ; preds = %54, %36
  tail call void (i32, ptr, ...) @log_var(i32 noundef 4, ptr noundef nonnull @.str.13) #8
  br label %57

57:                                               ; preds = %.sink.split, %51, %54, %33, %36, %3, %1
  ret void
}